; Function Attrs: nofree nounwind uwtable
define internal fastcc void @PrintHeader() unnamed_addr #4 {
  %puts = tail call i32 @puts(ptr nonnull dereferenceable(1) @str)
  %puts2 = tail call i32 @puts(ptr nonnull dereferenceable(1) @str.1)
  %1 = tail call i32 (ptr, ...) @printf(ptr noundef nonnull dereferenceable(1) @.str.19)
  %puts3 = tail call i32 @puts(ptr nonnull dereferenceable(1) @str.2)
  %2 = tail call i32 (ptr, ...) @printf(ptr noundef nonnull dereferenceable(1) @.str.21, i32 noundef 10, i32 noundef 10)
  %3 = tail call i32 (ptr, ...) @printf(ptr noundef nonnull dereferenceable(1) @.str.22, i32 noundef 100)
  %4 = tail call i32 (ptr, ...) @printf(ptr noundef nonnull dereferenceable(1) @.str.23, double noundef 0.000000e+00, double noundef 1.000000e-03)
  %puts4 = tail call i32 @puts(ptr nonnull dereferenceable(1) @str.3)
  %puts5 = tail call i32 @puts(ptr nonnull dereferenceable(1) @str.4)
  %5 = tail call i32 (ptr, ...) @printf(ptr noundef nonnull dereferenceable(1) @.str.26, i32 noundef 10)
  %6 = tail call i32 (ptr, ...) @printf(ptr noundef nonnull dereferenceable(1) @.str.27, double noundef 1.000000e-01)
  %puts6 = tail call i32 @puts(ptr nonnull dereferenceable(1) @str.5)
  %puts7 = tail call i32 @puts(ptr nonnull dereferenceable(1) @str.6)
  %puts8 = tail call i32 @puts(ptr nonnull dereferenceable(1) @str.7)
  ret void
}